target datalayout = "e-m:e-p270:32:32-p271:32:32-p272:64:64-i64:64-i128:128-f80:128-n8:16:32:64-S128"
target triple = "x86_64-pc-linux-gnu"

%class.AbstractAssembler = type { ptr, ptr, ptr }
%class.CodeSection = type { ptr, ptr, ptr, ptr, ptr, ptr, ptr, ptr, i8, i8, i32, i8, ptr }

; Function Attrs: mustprogress nounwind uwtable
define linkonce_odr hidden void @_ZN11CodeSection7set_endEPh(ptr noundef nonnull align 8 dereferenceable(88) %0, ptr noundef %1) #1 comdat align 2 {
  %3 = alloca ptr, align 8
  %4 = alloca ptr, align 8
  store ptr %0, ptr %3, align 8
  store ptr %1, ptr %4, align 8
  %5 = load ptr, ptr %3, align 8
  %6 = load ptr, ptr %4, align 8
  %7 = getelementptr inbounds %class.CodeSection, ptr %5, i32 0, i32 2
  store ptr %6, ptr %7, align 8
  ret void
}

; Function Attrs: mustprogress nounwind uwtable
define linkonce_odr hidden noundef ptr @_ZNK11CodeSection3endEv(ptr noundef nonnull align 8 dereferenceable(88) %0) #1 comdat align 2 {
  %2 = alloca ptr, align 8
  store ptr %0, ptr %2, align 8
  %3 = load ptr, ptr %2, align 8
  %4 = getelementptr inbounds %class.CodeSection, ptr %3, i32 0, i32 2
  %5 = load ptr, ptr %4, align 8
  ret ptr %5
}

; Function Attrs: mustprogress nounwind uwtable
define linkonce_odr hidden noundef zeroext i8 @_Z12checked_castIhiET_T0_(i32 noundef %0) #1 comdat {
  %2 = alloca i32, align 4
  %3 = alloca i8, align 1
  store i32 %0, ptr %2, align 4
  %4 = load i32, ptr %2, align 4
  %5 = trunc i32 %4 to i8
  store i8 %5, ptr %3, align 1
  %6 = load i8, ptr %3, align 1
  ret i8 %6
}

; Function Attrs: mustprogress nounwind uwtable
define linkonce_odr hidden void @_ZN11CodeSection10emit_int16Ehh(ptr noundef nonnull align 8 dereferenceable(88) %0, i8 noundef zeroext %1, i8 noundef zeroext %2) #1 comdat align 2 {
  %4 = alloca ptr, align 8
  %5 = alloca i8, align 1
  %6 = alloca i8, align 1
  %7 = alloca ptr, align 8
  store ptr %0, ptr %4, align 8
  store i8 %1, ptr %5, align 1
  store i8 %2, ptr %6, align 1
  %8 = load ptr, ptr %4, align 8
  %9 = call noundef ptr @_ZNK11CodeSection3endEv(ptr noundef nonnull align 8 dereferenceable(88) %8)
  store ptr %9, ptr %7, align 8
  %10 = load i8, ptr %5, align 1
  %11 = load ptr, ptr %7, align 8
  %12 = getelementptr inbounds i8, ptr %11, i32 1
  store ptr %12, ptr %7, align 8
  store i8 %10, ptr %11, align 1
  %13 = load i8, ptr %6, align 1
  %14 = load ptr, ptr %7, align 8
  %15 = getelementptr inbounds i8, ptr %14, i32 1
  store ptr %15, ptr %7, align 8
  store i8 %13, ptr %14, align 1
  %16 = load ptr, ptr %7, align 8
  call void @_ZN11CodeSection7set_endEPh(ptr noundef nonnull align 8 dereferenceable(88) %8, ptr noundef %16)
  ret void
}

; Function Attrs: mustprogress nounwind uwtable
define linkonce_odr hidden noundef zeroext i8 @_ZNK17AbstractAssembler11narrow_castIhEET_i(ptr noundef nonnull align 8 dereferenceable(24) %0, i32 noundef %1) #1 comdat align 2 {
  %3 = alloca i8, align 1
  %4 = alloca ptr, align 8
  %5 = alloca i32, align 4
  store ptr %0, ptr %4, align 8
  store i32 %1, ptr %5, align 4
  %6 = load i32, ptr %5, align 4
  %7 = icmp slt i32 %6, 0
  br i1 %7, label %8, label %11

8:                                                ; preds = %2
  %9 = load i32, ptr %5, align 4
  %10 = trunc i32 %9 to i8
  store i8 %10, ptr %3, align 1
  br label %14

11:                                               ; preds = %2
  %12 = load i32, ptr %5, align 4
  %13 = call noundef zeroext i8 @_Z12checked_castIhiET_T0_(i32 noundef %12)
  store i8 %13, ptr %3, align 1
  br label %14

14:                                               ; preds = %11, %8
  %15 = load i8, ptr %3, align 1
  ret i8 %15
}

; Function Attrs: mustprogress nounwind uwtable
define linkonce_odr hidden noundef ptr @_ZNK17AbstractAssembler12code_sectionEv(ptr noundef nonnull align 8 dereferenceable(24) %0) #1 comdat align 2 {
  %2 = alloca ptr, align 8
  store ptr %0, ptr %2, align 8
  %3 = load ptr, ptr %2, align 8
  %4 = getelementptr inbounds %class.AbstractAssembler, ptr %3, i32 0, i32 1
  %5 = load ptr, ptr %4, align 8
  ret ptr %5
}

; Function Attrs: mustprogress nounwind uwtable
define linkonce_odr hidden void @_ZN17AbstractAssembler10emit_int16Eii(ptr noundef nonnull align 8 dereferenceable(24) %0, i32 noundef %1, i32 noundef %2) #1 comdat align 2 {
  %4 = alloca ptr, align 8
  %5 = alloca i32, align 4
  %6 = alloca i32, align 4
  store ptr %0, ptr %4, align 8
  store i32 %1, ptr %5, align 4
  store i32 %2, ptr %6, align 4
  %7 = load ptr, ptr %4, align 8
  %8 = call noundef ptr @_ZNK17AbstractAssembler12code_sectionEv(ptr noundef nonnull align 8 dereferenceable(24) %7)
  %9 = load i32, ptr %5, align 4
  %10 = call noundef zeroext i8 @_ZNK17AbstractAssembler11narrow_castIhEET_i(ptr noundef nonnull align 8 dereferenceable(24) %7, i32 noundef %9)
  %11 = load i32, ptr %6, align 4
  %12 = call noundef zeroext i8 @_ZNK17AbstractAssembler11narrow_castIhEET_i(ptr noundef nonnull align 8 dereferenceable(24) %7, i32 noundef %11)
  call void @_ZN11CodeSection10emit_int16Ehh(ptr noundef nonnull align 8 dereferenceable(88) %8, i8 noundef zeroext %10, i8 noundef zeroext %12)
  ret void
}

; Function Attrs: mustprogress nounwind uwtable
define hidden void @_ZN9Assembler11emit_farithEiii(ptr noundef nonnull align 8 dereferenceable(40) %0, i32 noundef %1, i32 noundef %2, i32 noundef %3) #1 align 2 {
  %5 = alloca ptr, align 8
  %6 = alloca i32, align 4
  %7 = alloca i32, align 4
  %8 = alloca i32, align 4
  store ptr %0, ptr %5, align 8
  store i32 %1, ptr %6, align 4
  store i32 %2, ptr %7, align 4
  store i32 %3, ptr %8, align 4
  %9 = load ptr, ptr %5, align 8
  %10 = load i32, ptr %6, align 4
  %11 = load i32, ptr %7, align 4
  %12 = load i32, ptr %8, align 4
  %13 = add nsw i32 %11, %12
  call void @_ZN17AbstractAssembler10emit_int16Eii(ptr noundef nonnull align 8 dereferenceable(24) %9, i32 noundef %10, i32 noundef %13)
  ret void
}