; Function Attrs: mustprogress nofree norecurse nosync nounwind willreturn memory(readwrite, inaccessiblemem: none) uwtable
define hidden void @_ZN9Assembler11emit_farithEiii(ptr nocapture noundef nonnull readonly align 8 dereferenceable(40) %0, i32 noundef %1, i32 noundef %2, i32 noundef %3) local_unnamed_addr #8 align 2 {
  %5 = add nsw i32 %3, %2
  %6 = getelementptr inbounds i8, ptr %0, i64 8
  %7 = load ptr, ptr %6, align 8
  %.0.i.i = trunc i32 %1 to i8
  %.0.i2.i = trunc i32 %5 to i8
  %8 = getelementptr inbounds i8, ptr %7, i64 16
  %9 = load ptr, ptr %8, align 8
  %10 = getelementptr inbounds i8, ptr %9, i64 1
  store i8 %.0.i.i, ptr %9, align 1
  %11 = getelementptr inbounds i8, ptr %9, i64 2
  store i8 %.0.i2.i, ptr %10, align 1
  store ptr %11, ptr %8, align 8
  ret void
}